
_I2C_LCD_Cmd:

;lib_i2c_lcd.h,40 :: 		void I2C_LCD_Cmd(char out_char) {
;lib_i2c_lcd.h,44 :: 		byte = out_char & 0xF0;
	MOVLW      240
	ANDWF      FARG_I2C_LCD_Cmd_out_char+0, 0
	MOVWF      I2C_LCD_Cmd_byte_L0+0
;lib_i2c_lcd.h,46 :: 		I2C1_Start();
	CALL       _I2C1_Start+0
;lib_i2c_lcd.h,47 :: 		I2C1_Is_Idle();
	CALL       _I2C1_Is_Idle+0
;lib_i2c_lcd.h,48 :: 		I2C1_Wr(LCD_ADDR);
	MOVLW      78
	MOVWF      FARG_I2C1_Wr_data_+0
	CALL       _I2C1_Wr+0
;lib_i2c_lcd.h,49 :: 		I2C1_Is_Idle();
	CALL       _I2C1_Is_Idle+0
;lib_i2c_lcd.h,51 :: 		byte.F0 = 0;
	BCF        I2C_LCD_Cmd_byte_L0+0, 0
;lib_i2c_lcd.h,52 :: 		byte.F2 = 1;
	BSF        I2C_LCD_Cmd_byte_L0+0, 2
;lib_i2c_lcd.h,53 :: 		byte.F3 = 1;
	BSF        I2C_LCD_Cmd_byte_L0+0, 3
;lib_i2c_lcd.h,54 :: 		I2C1_Wr(byte);
	MOVF       I2C_LCD_Cmd_byte_L0+0, 0
	MOVWF      FARG_I2C1_Wr_data_+0
	CALL       _I2C1_Wr+0
;lib_i2c_lcd.h,55 :: 		I2C1_Is_Idle();
	CALL       _I2C1_Is_Idle+0
;lib_i2c_lcd.h,56 :: 		byte.F2 = 0;
	BCF        I2C_LCD_Cmd_byte_L0+0, 2
;lib_i2c_lcd.h,57 :: 		I2C1_Wr(byte);
	MOVF       I2C_LCD_Cmd_byte_L0+0, 0
	MOVWF      FARG_I2C1_Wr_data_+0
	CALL       _I2C1_Wr+0
;lib_i2c_lcd.h,58 :: 		I2C1_Is_Idle();
	CALL       _I2C1_Is_Idle+0
;lib_i2c_lcd.h,60 :: 		byte = (out_char << 4) & 0xF0;
	MOVF       FARG_I2C_LCD_Cmd_out_char+0, 0
	MOVWF      I2C_LCD_Cmd_byte_L0+0
	RLF        I2C_LCD_Cmd_byte_L0+0, 1
	BCF        I2C_LCD_Cmd_byte_L0+0, 0
	RLF        I2C_LCD_Cmd_byte_L0+0, 1
	BCF        I2C_LCD_Cmd_byte_L0+0, 0
	RLF        I2C_LCD_Cmd_byte_L0+0, 1
	BCF        I2C_LCD_Cmd_byte_L0+0, 0
	RLF        I2C_LCD_Cmd_byte_L0+0, 1
	BCF        I2C_LCD_Cmd_byte_L0+0, 0
	MOVLW      240
	ANDWF      I2C_LCD_Cmd_byte_L0+0, 1
;lib_i2c_lcd.h,62 :: 		byte.F0 = 0;
	BCF        I2C_LCD_Cmd_byte_L0+0, 0
;lib_i2c_lcd.h,63 :: 		byte.F2 = 1;
	BSF        I2C_LCD_Cmd_byte_L0+0, 2
;lib_i2c_lcd.h,64 :: 		byte.F3 = 1;
	BSF        I2C_LCD_Cmd_byte_L0+0, 3
;lib_i2c_lcd.h,65 :: 		I2C1_Wr(byte);
	MOVF       I2C_LCD_Cmd_byte_L0+0, 0
	MOVWF      FARG_I2C1_Wr_data_+0
	CALL       _I2C1_Wr+0
;lib_i2c_lcd.h,66 :: 		I2C1_Is_Idle();
	CALL       _I2C1_Is_Idle+0
;lib_i2c_lcd.h,67 :: 		byte.F2 = 0;
	BCF        I2C_LCD_Cmd_byte_L0+0, 2
;lib_i2c_lcd.h,68 :: 		I2C1_Wr(byte);
	MOVF       I2C_LCD_Cmd_byte_L0+0, 0
	MOVWF      FARG_I2C1_Wr_data_+0
	CALL       _I2C1_Wr+0
;lib_i2c_lcd.h,69 :: 		I2C1_Is_Idle();
	CALL       _I2C1_Is_Idle+0
;lib_i2c_lcd.h,70 :: 		I2C1_stop();
	CALL       _I2C1_Stop+0
;lib_i2c_lcd.h,72 :: 		if(out_char == 0x01)Delay_ms(2);
	MOVF       FARG_I2C_LCD_Cmd_out_char+0, 0
	XORLW      1
	BTFSS      STATUS+0, 2
	GOTO       L_I2C_LCD_Cmd0
	MOVLW      3
	MOVWF      R12+0
	MOVLW      151
	MOVWF      R13+0
L_I2C_LCD_Cmd1:
	DECFSZ     R13+0, 1
	GOTO       L_I2C_LCD_Cmd1
	DECFSZ     R12+0, 1
	GOTO       L_I2C_LCD_Cmd1
	NOP
	NOP
L_I2C_LCD_Cmd0:
;lib_i2c_lcd.h,73 :: 		}
L_end_I2C_LCD_Cmd:
	RETURN
; end of _I2C_LCD_Cmd

_I2C_LCD_Chr:

;lib_i2c_lcd.h,75 :: 		void I2C_LCD_Chr(char row, char column, char out_char) {
;lib_i2c_lcd.h,79 :: 		switch(row){
	GOTO       L_I2C_LCD_Chr2
;lib_i2c_lcd.h,81 :: 		case 1:
L_I2C_LCD_Chr4:
;lib_i2c_lcd.h,82 :: 		I2C_LCD_Cmd(0x80 + (column - 1));
	DECF       FARG_I2C_LCD_Chr_column+0, 0
	MOVWF      R0+0
	MOVF       R0+0, 0
	ADDLW      128
	MOVWF      FARG_I2C_LCD_Cmd_out_char+0
	CALL       _I2C_LCD_Cmd+0
;lib_i2c_lcd.h,83 :: 		break;
	GOTO       L_I2C_LCD_Chr3
;lib_i2c_lcd.h,84 :: 		case 2:
L_I2C_LCD_Chr5:
;lib_i2c_lcd.h,85 :: 		I2C_LCD_Cmd(0xC0 + (column - 1));
	DECF       FARG_I2C_LCD_Chr_column+0, 0
	MOVWF      R0+0
	MOVF       R0+0, 0
	ADDLW      192
	MOVWF      FARG_I2C_LCD_Cmd_out_char+0
	CALL       _I2C_LCD_Cmd+0
;lib_i2c_lcd.h,86 :: 		break;
	GOTO       L_I2C_LCD_Chr3
;lib_i2c_lcd.h,87 :: 		case 3:
L_I2C_LCD_Chr6:
;lib_i2c_lcd.h,88 :: 		I2C_LCD_Cmd(0x94 + (column - 1));
	DECF       FARG_I2C_LCD_Chr_column+0, 0
	MOVWF      R0+0
	MOVF       R0+0, 0
	ADDLW      148
	MOVWF      FARG_I2C_LCD_Cmd_out_char+0
	CALL       _I2C_LCD_Cmd+0
;lib_i2c_lcd.h,89 :: 		break;
	GOTO       L_I2C_LCD_Chr3
;lib_i2c_lcd.h,90 :: 		case 4:
L_I2C_LCD_Chr7:
;lib_i2c_lcd.h,91 :: 		I2C_LCD_Cmd(0xD4 + (column - 1));
	DECF       FARG_I2C_LCD_Chr_column+0, 0
	MOVWF      R0+0
	MOVF       R0+0, 0
	ADDLW      212
	MOVWF      FARG_I2C_LCD_Cmd_out_char+0
	CALL       _I2C_LCD_Cmd+0
;lib_i2c_lcd.h,92 :: 		break;
	GOTO       L_I2C_LCD_Chr3
;lib_i2c_lcd.h,93 :: 		};
L_I2C_LCD_Chr2:
	MOVF       FARG_I2C_LCD_Chr_row+0, 0
	XORLW      1
	BTFSC      STATUS+0, 2
	GOTO       L_I2C_LCD_Chr4
	MOVF       FARG_I2C_LCD_Chr_row+0, 0
	XORLW      2
	BTFSC      STATUS+0, 2
	GOTO       L_I2C_LCD_Chr5
	MOVF       FARG_I2C_LCD_Chr_row+0, 0
	XORLW      3
	BTFSC      STATUS+0, 2
	GOTO       L_I2C_LCD_Chr6
	MOVF       FARG_I2C_LCD_Chr_row+0, 0
	XORLW      4
	BTFSC      STATUS+0, 2
	GOTO       L_I2C_LCD_Chr7
L_I2C_LCD_Chr3:
;lib_i2c_lcd.h,95 :: 		byte = out_char & 0xF0;
	MOVLW      240
	ANDWF      FARG_I2C_LCD_Chr_out_char+0, 0
	MOVWF      I2C_LCD_Chr_byte_L0+0
;lib_i2c_lcd.h,97 :: 		I2C1_Start();
	CALL       _I2C1_Start+0
;lib_i2c_lcd.h,98 :: 		I2C1_Is_Idle();
	CALL       _I2C1_Is_Idle+0
;lib_i2c_lcd.h,99 :: 		I2C1_Wr(LCD_ADDR);
	MOVLW      78
	MOVWF      FARG_I2C1_Wr_data_+0
	CALL       _I2C1_Wr+0
;lib_i2c_lcd.h,100 :: 		I2C1_Is_Idle();
	CALL       _I2C1_Is_Idle+0
;lib_i2c_lcd.h,102 :: 		byte.F0 = 1;
	BSF        I2C_LCD_Chr_byte_L0+0, 0
;lib_i2c_lcd.h,103 :: 		byte.F2 = 1;
	BSF        I2C_LCD_Chr_byte_L0+0, 2
;lib_i2c_lcd.h,104 :: 		byte.F3 = 1;
	BSF        I2C_LCD_Chr_byte_L0+0, 3
;lib_i2c_lcd.h,105 :: 		I2C1_Wr(byte);
	MOVF       I2C_LCD_Chr_byte_L0+0, 0
	MOVWF      FARG_I2C1_Wr_data_+0
	CALL       _I2C1_Wr+0
;lib_i2c_lcd.h,106 :: 		I2C1_Is_Idle();
	CALL       _I2C1_Is_Idle+0
;lib_i2c_lcd.h,107 :: 		byte.F2 = 0;
	BCF        I2C_LCD_Chr_byte_L0+0, 2
;lib_i2c_lcd.h,108 :: 		I2C1_Wr(byte);
	MOVF       I2C_LCD_Chr_byte_L0+0, 0
	MOVWF      FARG_I2C1_Wr_data_+0
	CALL       _I2C1_Wr+0
;lib_i2c_lcd.h,109 :: 		I2C1_Is_Idle();
	CALL       _I2C1_Is_Idle+0
;lib_i2c_lcd.h,111 :: 		byte = (out_char << 4) & 0xF0;
	MOVF       FARG_I2C_LCD_Chr_out_char+0, 0
	MOVWF      I2C_LCD_Chr_byte_L0+0
	RLF        I2C_LCD_Chr_byte_L0+0, 1
	BCF        I2C_LCD_Chr_byte_L0+0, 0
	RLF        I2C_LCD_Chr_byte_L0+0, 1
	BCF        I2C_LCD_Chr_byte_L0+0, 0
	RLF        I2C_LCD_Chr_byte_L0+0, 1
	BCF        I2C_LCD_Chr_byte_L0+0, 0
	RLF        I2C_LCD_Chr_byte_L0+0, 1
	BCF        I2C_LCD_Chr_byte_L0+0, 0
	MOVLW      240
	ANDWF      I2C_LCD_Chr_byte_L0+0, 1
;lib_i2c_lcd.h,113 :: 		byte.F0 = 1;
	BSF        I2C_LCD_Chr_byte_L0+0, 0
;lib_i2c_lcd.h,114 :: 		byte.F2 = 1;
	BSF        I2C_LCD_Chr_byte_L0+0, 2
;lib_i2c_lcd.h,115 :: 		byte.F3 = 1;
	BSF        I2C_LCD_Chr_byte_L0+0, 3
;lib_i2c_lcd.h,116 :: 		I2C1_Wr(byte);
	MOVF       I2C_LCD_Chr_byte_L0+0, 0
	MOVWF      FARG_I2C1_Wr_data_+0
	CALL       _I2C1_Wr+0
;lib_i2c_lcd.h,117 :: 		I2C1_Is_Idle();
	CALL       _I2C1_Is_Idle+0
;lib_i2c_lcd.h,118 :: 		byte.F2 = 0;
	BCF        I2C_LCD_Chr_byte_L0+0, 2
;lib_i2c_lcd.h,119 :: 		I2C1_Wr(byte);
	MOVF       I2C_LCD_Chr_byte_L0+0, 0
	MOVWF      FARG_I2C1_Wr_data_+0
	CALL       _I2C1_Wr+0
;lib_i2c_lcd.h,120 :: 		I2C1_Is_Idle();
	CALL       _I2C1_Is_Idle+0
;lib_i2c_lcd.h,122 :: 		I2C1_stop();
	CALL       _I2C1_Stop+0
;lib_i2c_lcd.h,123 :: 		}
L_end_I2C_LCD_Chr:
	RETURN
; end of _I2C_LCD_Chr

_I2C_LCD_Chr_Cp:

;lib_i2c_lcd.h,125 :: 		void I2C_LCD_Chr_Cp(char out_char) {
;lib_i2c_lcd.h,129 :: 		byte = out_char & 0xF0;
	MOVLW      240
	ANDWF      FARG_I2C_LCD_Chr_Cp_out_char+0, 0
	MOVWF      I2C_LCD_Chr_Cp_byte_L0+0
;lib_i2c_lcd.h,131 :: 		I2C1_Start();
	CALL       _I2C1_Start+0
;lib_i2c_lcd.h,132 :: 		I2C1_Is_Idle();
	CALL       _I2C1_Is_Idle+0
;lib_i2c_lcd.h,133 :: 		I2C1_Wr(LCD_ADDR);
	MOVLW      78
	MOVWF      FARG_I2C1_Wr_data_+0
	CALL       _I2C1_Wr+0
;lib_i2c_lcd.h,134 :: 		I2C1_Is_Idle();
	CALL       _I2C1_Is_Idle+0
;lib_i2c_lcd.h,136 :: 		byte.F0 = 1;
	BSF        I2C_LCD_Chr_Cp_byte_L0+0, 0
;lib_i2c_lcd.h,137 :: 		byte.F2 = 1;
	BSF        I2C_LCD_Chr_Cp_byte_L0+0, 2
;lib_i2c_lcd.h,138 :: 		byte.F3 = 1;
	BSF        I2C_LCD_Chr_Cp_byte_L0+0, 3
;lib_i2c_lcd.h,139 :: 		I2C1_Wr(byte);
	MOVF       I2C_LCD_Chr_Cp_byte_L0+0, 0
	MOVWF      FARG_I2C1_Wr_data_+0
	CALL       _I2C1_Wr+0
;lib_i2c_lcd.h,140 :: 		I2C1_Is_Idle();
	CALL       _I2C1_Is_Idle+0
;lib_i2c_lcd.h,141 :: 		byte.F2 = 0;
	BCF        I2C_LCD_Chr_Cp_byte_L0+0, 2
;lib_i2c_lcd.h,142 :: 		I2C1_Wr(byte);
	MOVF       I2C_LCD_Chr_Cp_byte_L0+0, 0
	MOVWF      FARG_I2C1_Wr_data_+0
	CALL       _I2C1_Wr+0
;lib_i2c_lcd.h,143 :: 		I2C1_Is_Idle();
	CALL       _I2C1_Is_Idle+0
;lib_i2c_lcd.h,145 :: 		byte = (out_char << 4) & 0xF0;
	MOVF       FARG_I2C_LCD_Chr_Cp_out_char+0, 0
	MOVWF      I2C_LCD_Chr_Cp_byte_L0+0
	RLF        I2C_LCD_Chr_Cp_byte_L0+0, 1
	BCF        I2C_LCD_Chr_Cp_byte_L0+0, 0
	RLF        I2C_LCD_Chr_Cp_byte_L0+0, 1
	BCF        I2C_LCD_Chr_Cp_byte_L0+0, 0
	RLF        I2C_LCD_Chr_Cp_byte_L0+0, 1
	BCF        I2C_LCD_Chr_Cp_byte_L0+0, 0
	RLF        I2C_LCD_Chr_Cp_byte_L0+0, 1
	BCF        I2C_LCD_Chr_Cp_byte_L0+0, 0
	MOVLW      240
	ANDWF      I2C_LCD_Chr_Cp_byte_L0+0, 1
;lib_i2c_lcd.h,147 :: 		byte.F0 = 1;
	BSF        I2C_LCD_Chr_Cp_byte_L0+0, 0
;lib_i2c_lcd.h,148 :: 		byte.F2 = 1;
	BSF        I2C_LCD_Chr_Cp_byte_L0+0, 2
;lib_i2c_lcd.h,149 :: 		byte.F3 = 1;
	BSF        I2C_LCD_Chr_Cp_byte_L0+0, 3
;lib_i2c_lcd.h,150 :: 		I2C1_Wr(byte);
	MOVF       I2C_LCD_Chr_Cp_byte_L0+0, 0
	MOVWF      FARG_I2C1_Wr_data_+0
	CALL       _I2C1_Wr+0
;lib_i2c_lcd.h,151 :: 		I2C1_Is_Idle();
	CALL       _I2C1_Is_Idle+0
;lib_i2c_lcd.h,152 :: 		byte.F2 = 0;
	BCF        I2C_LCD_Chr_Cp_byte_L0+0, 2
;lib_i2c_lcd.h,153 :: 		I2C1_Wr(byte);
	MOVF       I2C_LCD_Chr_Cp_byte_L0+0, 0
	MOVWF      FARG_I2C1_Wr_data_+0
	CALL       _I2C1_Wr+0
;lib_i2c_lcd.h,154 :: 		I2C1_Is_Idle();
	CALL       _I2C1_Is_Idle+0
;lib_i2c_lcd.h,156 :: 		I2C1_stop();
	CALL       _I2C1_Stop+0
;lib_i2c_lcd.h,157 :: 		}
L_end_I2C_LCD_Chr_Cp:
	RETURN
; end of _I2C_LCD_Chr_Cp

_I2C_LCD_Init:

;lib_i2c_lcd.h,160 :: 		void I2C_LCD_Init() {
;lib_i2c_lcd.h,164 :: 		Delay_ms(150);
	MOVLW      195
	MOVWF      R12+0
	MOVLW      205
	MOVWF      R13+0
L_I2C_LCD_Init8:
	DECFSZ     R13+0, 1
	GOTO       L_I2C_LCD_Init8
	DECFSZ     R12+0, 1
	GOTO       L_I2C_LCD_Init8
;lib_i2c_lcd.h,166 :: 		I2C1_Start();
	CALL       _I2C1_Start+0
;lib_i2c_lcd.h,167 :: 		I2C1_Is_Idle();
	CALL       _I2C1_Is_Idle+0
;lib_i2c_lcd.h,168 :: 		I2C1_Wr(LCD_ADDR);
	MOVLW      78
	MOVWF      FARG_I2C1_Wr_data_+0
	CALL       _I2C1_Wr+0
;lib_i2c_lcd.h,169 :: 		I2C1_Is_Idle();
	CALL       _I2C1_Is_Idle+0
;lib_i2c_lcd.h,171 :: 		Delay_ms(30);
	MOVLW      39
	MOVWF      R12+0
	MOVLW      245
	MOVWF      R13+0
L_I2C_LCD_Init9:
	DECFSZ     R13+0, 1
	GOTO       L_I2C_LCD_Init9
	DECFSZ     R12+0, 1
	GOTO       L_I2C_LCD_Init9
;lib_i2c_lcd.h,173 :: 		byte = 0x30;
	MOVLW      48
	MOVWF      I2C_LCD_Init_byte_L0+0
;lib_i2c_lcd.h,174 :: 		byte.F3 = 1;
	BSF        I2C_LCD_Init_byte_L0+0, 3
;lib_i2c_lcd.h,176 :: 		byte.F2 = 1;
	BSF        I2C_LCD_Init_byte_L0+0, 2
;lib_i2c_lcd.h,177 :: 		I2C1_Wr(byte);
	MOVF       I2C_LCD_Init_byte_L0+0, 0
	MOVWF      FARG_I2C1_Wr_data_+0
	CALL       _I2C1_Wr+0
;lib_i2c_lcd.h,178 :: 		I2C1_Is_Idle();
	CALL       _I2C1_Is_Idle+0
;lib_i2c_lcd.h,179 :: 		byte.F2 = 0;
	BCF        I2C_LCD_Init_byte_L0+0, 2
;lib_i2c_lcd.h,180 :: 		I2C1_Wr(byte);
	MOVF       I2C_LCD_Init_byte_L0+0, 0
	MOVWF      FARG_I2C1_Wr_data_+0
	CALL       _I2C1_Wr+0
;lib_i2c_lcd.h,181 :: 		I2C1_Is_Idle();
	CALL       _I2C1_Is_Idle+0
;lib_i2c_lcd.h,183 :: 		Delay_ms(30);
	MOVLW      39
	MOVWF      R12+0
	MOVLW      245
	MOVWF      R13+0
L_I2C_LCD_Init10:
	DECFSZ     R13+0, 1
	GOTO       L_I2C_LCD_Init10
	DECFSZ     R12+0, 1
	GOTO       L_I2C_LCD_Init10
;lib_i2c_lcd.h,185 :: 		byte.F2 = 1;
	BSF        I2C_LCD_Init_byte_L0+0, 2
;lib_i2c_lcd.h,186 :: 		I2C1_Wr(byte);
	MOVF       I2C_LCD_Init_byte_L0+0, 0
	MOVWF      FARG_I2C1_Wr_data_+0
	CALL       _I2C1_Wr+0
;lib_i2c_lcd.h,187 :: 		I2C1_Is_Idle();
	CALL       _I2C1_Is_Idle+0
;lib_i2c_lcd.h,188 :: 		byte.F2 = 0;
	BCF        I2C_LCD_Init_byte_L0+0, 2
;lib_i2c_lcd.h,189 :: 		I2C1_Wr(byte);
	MOVF       I2C_LCD_Init_byte_L0+0, 0
	MOVWF      FARG_I2C1_Wr_data_+0
	CALL       _I2C1_Wr+0
;lib_i2c_lcd.h,190 :: 		I2C1_Is_Idle();
	CALL       _I2C1_Is_Idle+0
;lib_i2c_lcd.h,192 :: 		Delay_ms(30);
	MOVLW      39
	MOVWF      R12+0
	MOVLW      245
	MOVWF      R13+0
L_I2C_LCD_Init11:
	DECFSZ     R13+0, 1
	GOTO       L_I2C_LCD_Init11
	DECFSZ     R12+0, 1
	GOTO       L_I2C_LCD_Init11
;lib_i2c_lcd.h,194 :: 		byte.F2 = 1;
	BSF        I2C_LCD_Init_byte_L0+0, 2
;lib_i2c_lcd.h,195 :: 		I2C1_Wr(byte);
	MOVF       I2C_LCD_Init_byte_L0+0, 0
	MOVWF      FARG_I2C1_Wr_data_+0
	CALL       _I2C1_Wr+0
;lib_i2c_lcd.h,196 :: 		I2C1_Is_Idle();
	CALL       _I2C1_Is_Idle+0
;lib_i2c_lcd.h,197 :: 		byte.F2 = 0;
	BCF        I2C_LCD_Init_byte_L0+0, 2
;lib_i2c_lcd.h,198 :: 		I2C1_Wr(byte);
	MOVF       I2C_LCD_Init_byte_L0+0, 0
	MOVWF      FARG_I2C1_Wr_data_+0
	CALL       _I2C1_Wr+0
;lib_i2c_lcd.h,199 :: 		I2C1_Is_Idle();
	CALL       _I2C1_Is_Idle+0
;lib_i2c_lcd.h,201 :: 		Delay_ms(20);
	MOVLW      26
	MOVWF      R12+0
	MOVLW      248
	MOVWF      R13+0
L_I2C_LCD_Init12:
	DECFSZ     R13+0, 1
	GOTO       L_I2C_LCD_Init12
	DECFSZ     R12+0, 1
	GOTO       L_I2C_LCD_Init12
	NOP
;lib_i2c_lcd.h,203 :: 		byte = 0x20;
	MOVLW      32
	MOVWF      I2C_LCD_Init_byte_L0+0
;lib_i2c_lcd.h,204 :: 		byte.F3 = 1;
	BSF        I2C_LCD_Init_byte_L0+0, 3
;lib_i2c_lcd.h,206 :: 		byte.F2 = 1;
	BSF        I2C_LCD_Init_byte_L0+0, 2
;lib_i2c_lcd.h,207 :: 		I2C1_Wr(byte);
	MOVF       I2C_LCD_Init_byte_L0+0, 0
	MOVWF      FARG_I2C1_Wr_data_+0
	CALL       _I2C1_Wr+0
;lib_i2c_lcd.h,208 :: 		I2C1_Is_Idle();
	CALL       _I2C1_Is_Idle+0
;lib_i2c_lcd.h,209 :: 		byte.F2 = 0;
	BCF        I2C_LCD_Init_byte_L0+0, 2
;lib_i2c_lcd.h,210 :: 		I2C1_Wr(byte);
	MOVF       I2C_LCD_Init_byte_L0+0, 0
	MOVWF      FARG_I2C1_Wr_data_+0
	CALL       _I2C1_Wr+0
;lib_i2c_lcd.h,211 :: 		I2C1_Is_Idle();
	CALL       _I2C1_Is_Idle+0
;lib_i2c_lcd.h,213 :: 		Delay_ms(10);
	MOVLW      13
	MOVWF      R12+0
	MOVLW      251
	MOVWF      R13+0
L_I2C_LCD_Init13:
	DECFSZ     R13+0, 1
	GOTO       L_I2C_LCD_Init13
	DECFSZ     R12+0, 1
	GOTO       L_I2C_LCD_Init13
	NOP
	NOP
;lib_i2c_lcd.h,215 :: 		I2C_LCD_Cmd(0x28);
	MOVLW      40
	MOVWF      FARG_I2C_LCD_Cmd_out_char+0
	CALL       _I2C_LCD_Cmd+0
;lib_i2c_lcd.h,216 :: 		I2C_LCD_Cmd(0x06);
	MOVLW      6
	MOVWF      FARG_I2C_LCD_Cmd_out_char+0
	CALL       _I2C_LCD_Cmd+0
;lib_i2c_lcd.h,217 :: 		}
L_end_I2C_LCD_Init:
	RETURN
; end of _I2C_LCD_Init

_I2C_LCD_Out:

;lib_i2c_lcd.h,219 :: 		void I2C_LCD_Out(char row, char col, char *text) {
;lib_i2c_lcd.h,220 :: 		while(*text)
L_I2C_LCD_Out14:
	MOVF       FARG_I2C_LCD_Out_text+0, 0
	MOVWF      FSR
	MOVF       INDF+0, 0
	BTFSC      STATUS+0, 2
	GOTO       L_I2C_LCD_Out15
;lib_i2c_lcd.h,221 :: 		I2C_LCD_Chr(row, col++, *text++);
	MOVF       FARG_I2C_LCD_Out_row+0, 0
	MOVWF      FARG_I2C_LCD_Chr_row+0
	MOVF       FARG_I2C_LCD_Out_col+0, 0
	MOVWF      FARG_I2C_LCD_Chr_column+0
	MOVF       FARG_I2C_LCD_Out_text+0, 0
	MOVWF      FSR
	MOVF       INDF+0, 0
	MOVWF      FARG_I2C_LCD_Chr_out_char+0
	CALL       _I2C_LCD_Chr+0
	INCF       FARG_I2C_LCD_Out_col+0, 1
	INCF       FARG_I2C_LCD_Out_text+0, 1
	GOTO       L_I2C_LCD_Out14
L_I2C_LCD_Out15:
;lib_i2c_lcd.h,222 :: 		}
L_end_I2C_LCD_Out:
	RETURN
; end of _I2C_LCD_Out

_I2C_LCD_Out_Cp:

;lib_i2c_lcd.h,224 :: 		void I2C_LCD_Out_Cp(char *text) {
;lib_i2c_lcd.h,225 :: 		while(*text)
L_I2C_LCD_Out_Cp16:
	MOVF       FARG_I2C_LCD_Out_Cp_text+0, 0
	MOVWF      FSR
	MOVF       INDF+0, 0
	BTFSC      STATUS+0, 2
	GOTO       L_I2C_LCD_Out_Cp17
;lib_i2c_lcd.h,226 :: 		I2C_LCD_Chr_Cp(*text++);
	MOVF       FARG_I2C_LCD_Out_Cp_text+0, 0
	MOVWF      FSR
	MOVF       INDF+0, 0
	MOVWF      FARG_I2C_LCD_Chr_Cp_out_char+0
	CALL       _I2C_LCD_Chr_Cp+0
	INCF       FARG_I2C_LCD_Out_Cp_text+0, 1
	GOTO       L_I2C_LCD_Out_Cp16
L_I2C_LCD_Out_Cp17:
;lib_i2c_lcd.h,227 :: 		}
L_end_I2C_LCD_Out_Cp:
	RETURN
; end of _I2C_LCD_Out_Cp

_map:

;AP_FINAL.c,6 :: 		long map(long x, long in_min, long in_max, long out_min, long out_max) {
;AP_FINAL.c,7 :: 		return (x - in_min) * (out_max - out_min) / (in_max - in_min) + out_min;
	MOVF       FARG_map_x+0, 0
	MOVWF      R4+0
	MOVF       FARG_map_x+1, 0
	MOVWF      R4+1
	MOVF       FARG_map_x+2, 0
	MOVWF      R4+2
	MOVF       FARG_map_x+3, 0
	MOVWF      R4+3
	MOVF       FARG_map_in_min+0, 0
	SUBWF      R4+0, 1
	MOVF       FARG_map_in_min+1, 0
	BTFSS      STATUS+0, 0
	INCFSZ     FARG_map_in_min+1, 0
	SUBWF      R4+1, 1
	MOVF       FARG_map_in_min+2, 0
	BTFSS      STATUS+0, 0
	INCFSZ     FARG_map_in_min+2, 0
	SUBWF      R4+2, 1
	MOVF       FARG_map_in_min+3, 0
	BTFSS      STATUS+0, 0
	INCFSZ     FARG_map_in_min+3, 0
	SUBWF      R4+3, 1
	MOVF       FARG_map_out_max+0, 0
	MOVWF      R0+0
	MOVF       FARG_map_out_max+1, 0
	MOVWF      R0+1
	MOVF       FARG_map_out_max+2, 0
	MOVWF      R0+2
	MOVF       FARG_map_out_max+3, 0
	MOVWF      R0+3
	MOVF       FARG_map_out_min+0, 0
	SUBWF      R0+0, 1
	MOVF       FARG_map_out_min+1, 0
	BTFSS      STATUS+0, 0
	INCFSZ     FARG_map_out_min+1, 0
	SUBWF      R0+1, 1
	MOVF       FARG_map_out_min+2, 0
	BTFSS      STATUS+0, 0
	INCFSZ     FARG_map_out_min+2, 0
	SUBWF      R0+2, 1
	MOVF       FARG_map_out_min+3, 0
	BTFSS      STATUS+0, 0
	INCFSZ     FARG_map_out_min+3, 0
	SUBWF      R0+3, 1
	CALL       _Mul_32x32_U+0
	MOVF       FARG_map_in_max+0, 0
	MOVWF      R4+0
	MOVF       FARG_map_in_max+1, 0
	MOVWF      R4+1
	MOVF       FARG_map_in_max+2, 0
	MOVWF      R4+2
	MOVF       FARG_map_in_max+3, 0
	MOVWF      R4+3
	MOVF       FARG_map_in_min+0, 0
	SUBWF      R4+0, 1
	MOVF       FARG_map_in_min+1, 0
	BTFSS      STATUS+0, 0
	INCFSZ     FARG_map_in_min+1, 0
	SUBWF      R4+1, 1
	MOVF       FARG_map_in_min+2, 0
	BTFSS      STATUS+0, 0
	INCFSZ     FARG_map_in_min+2, 0
	SUBWF      R4+2, 1
	MOVF       FARG_map_in_min+3, 0
	BTFSS      STATUS+0, 0
	INCFSZ     FARG_map_in_min+3, 0
	SUBWF      R4+3, 1
	CALL       _Div_32x32_S+0
	MOVF       FARG_map_out_min+0, 0
	ADDWF      R0+0, 1
	MOVF       FARG_map_out_min+1, 0
	BTFSC      STATUS+0, 0
	INCFSZ     FARG_map_out_min+1, 0
	ADDWF      R0+1, 1
	MOVF       FARG_map_out_min+2, 0
	BTFSC      STATUS+0, 0
	INCFSZ     FARG_map_out_min+2, 0
	ADDWF      R0+2, 1
	MOVF       FARG_map_out_min+3, 0
	BTFSC      STATUS+0, 0
	INCFSZ     FARG_map_out_min+3, 0
	ADDWF      R0+3, 1
;AP_FINAL.c,8 :: 		}
L_end_map:
	RETURN
; end of _map

_interrupt:
	MOVWF      R15+0
	SWAPF      STATUS+0, 0
	CLRF       STATUS+0
	MOVWF      ___saveSTATUS+0
	MOVF       PCLATH+0, 0
	MOVWF      ___savePCLATH+0
	CLRF       PCLATH+0

;AP_FINAL.c,10 :: 		void interrupt(){
;AP_FINAL.c,11 :: 		if(INTCON.f1 == 1){  //parada de emergencia
	BTFSS      INTCON+0, 1
	GOTO       L_interrupt18
;AP_FINAL.c,13 :: 		PWM1_Stop();
	CALL       _PWM1_Stop+0
;AP_FINAL.c,14 :: 		PORTC.f2 = 0;
	BCF        PORTC+0, 2
;AP_FINAL.c,15 :: 		TRISC.f2 = 1;
	BSF        TRISC+0, 2
;AP_FINAL.c,16 :: 		while(1);
L_interrupt19:
	GOTO       L_interrupt19
;AP_FINAL.c,17 :: 		}
L_interrupt18:
;AP_FINAL.c,19 :: 		}
L_end_interrupt:
L__interrupt41:
	MOVF       ___savePCLATH+0, 0
	MOVWF      PCLATH+0
	SWAPF      ___saveSTATUS+0, 0
	MOVWF      STATUS+0
	SWAPF      R15+0, 1
	SWAPF      R15+0, 0
	RETFIE
; end of _interrupt

_controlBomba:

;AP_FINAL.c,21 :: 		void controlBomba(){
;AP_FINAL.c,22 :: 		if(NivelActual <= NivelMinimo){
	MOVF       _NivelActual+1, 0
	SUBWF      _NivelMinimo+1, 0
	BTFSS      STATUS+0, 2
	GOTO       L__controlBomba43
	MOVF       _NivelActual+0, 0
	SUBWF      _NivelMinimo+0, 0
L__controlBomba43:
	BTFSS      STATUS+0, 0
	GOTO       L_controlBomba21
;AP_FINAL.c,23 :: 		PWM1_Set_Duty(192);
	MOVLW      192
	MOVWF      FARG_PWM1_Set_Duty_new_duty+0
	CALL       _PWM1_Set_Duty+0
;AP_FINAL.c,24 :: 		EstadoBomba = '1';
	MOVLW      49
	MOVWF      _EstadoBomba+0
;AP_FINAL.c,25 :: 		}
L_controlBomba21:
;AP_FINAL.c,26 :: 		if(NivelActual >= NivelMaximo){
	MOVF       _NivelMaximo+1, 0
	SUBWF      _NivelActual+1, 0
	BTFSS      STATUS+0, 2
	GOTO       L__controlBomba44
	MOVF       _NivelMaximo+0, 0
	SUBWF      _NivelActual+0, 0
L__controlBomba44:
	BTFSS      STATUS+0, 0
	GOTO       L_controlBomba22
;AP_FINAL.c,27 :: 		PWM1_Set_Duty(0);
	CLRF       FARG_PWM1_Set_Duty_new_duty+0
	CALL       _PWM1_Set_Duty+0
;AP_FINAL.c,28 :: 		EstadoBomba = '0';
	MOVLW      48
	MOVWF      _EstadoBomba+0
;AP_FINAL.c,29 :: 		}
L_controlBomba22:
;AP_FINAL.c,30 :: 		}
L_end_controlBomba:
	RETURN
; end of _controlBomba

_controlValvula:

;AP_FINAL.c,31 :: 		void controlValvula(){
;AP_FINAL.c,32 :: 		if (UART1_Data_Ready() == 1) {
	CALL       _UART1_Data_Ready+0
	MOVF       R0+0, 0
	XORLW      1
	BTFSS      STATUS+0, 2
	GOTO       L_controlValvula23
;AP_FINAL.c,33 :: 		OrdenValvula = UART1_Read();
	CALL       _UART1_Read+0
	MOVF       R0+0, 0
	MOVWF      _OrdenValvula+0
;AP_FINAL.c,34 :: 		if(OrdenValvula == '1'){
	MOVF       R0+0, 0
	XORLW      49
	BTFSS      STATUS+0, 2
	GOTO       L_controlValvula24
;AP_FINAL.c,35 :: 		PORTD.f0 = 1;
	BSF        PORTD+0, 0
;AP_FINAL.c,36 :: 		EstadoValvula = '1';
	MOVLW      49
	MOVWF      _EstadoValvula+0
;AP_FINAL.c,37 :: 		}
L_controlValvula24:
;AP_FINAL.c,38 :: 		if(OrdenValvula == '0'){
	MOVF       _OrdenValvula+0, 0
	XORLW      48
	BTFSS      STATUS+0, 2
	GOTO       L_controlValvula25
;AP_FINAL.c,39 :: 		PORTD.f0 = 0;
	BCF        PORTD+0, 0
;AP_FINAL.c,40 :: 		EstadoValvula = '0';
	MOVLW      48
	MOVWF      _EstadoValvula+0
;AP_FINAL.c,41 :: 		}
L_controlValvula25:
;AP_FINAL.c,42 :: 		}
L_controlValvula23:
;AP_FINAL.c,43 :: 		}
L_end_controlValvula:
	RETURN
; end of _controlValvula

_plantillaLCD:

;AP_FINAL.c,44 :: 		void plantillaLCD(){
;AP_FINAL.c,45 :: 		I2C_Lcd_Out(1,3,"CONTROL DE TANQUE");
	MOVLW      1
	MOVWF      FARG_I2C_LCD_Out_row+0
	MOVLW      3
	MOVWF      FARG_I2C_LCD_Out_col+0
	MOVLW      ?lstr1_AP_FINAL+0
	MOVWF      FARG_I2C_LCD_Out_text+0
	CALL       _I2C_LCD_Out+0
;AP_FINAL.c,46 :: 		I2C_Lcd_Out(2,1,"NIVEL ACTUAL: 000%");
	MOVLW      2
	MOVWF      FARG_I2C_LCD_Out_row+0
	MOVLW      1
	MOVWF      FARG_I2C_LCD_Out_col+0
	MOVLW      ?lstr2_AP_FINAL+0
	MOVWF      FARG_I2C_LCD_Out_text+0
	CALL       _I2C_LCD_Out+0
;AP_FINAL.c,47 :: 		I2C_Lcd_Out(3,1,"ESTADO BOMBA:");
	MOVLW      3
	MOVWF      FARG_I2C_LCD_Out_row+0
	MOVLW      1
	MOVWF      FARG_I2C_LCD_Out_col+0
	MOVLW      ?lstr3_AP_FINAL+0
	MOVWF      FARG_I2C_LCD_Out_text+0
	CALL       _I2C_LCD_Out+0
;AP_FINAL.c,48 :: 		I2C_Lcd_Out(4,1,"ESTADO VALVULA:");
	MOVLW      4
	MOVWF      FARG_I2C_LCD_Out_row+0
	MOVLW      1
	MOVWF      FARG_I2C_LCD_Out_col+0
	MOVLW      ?lstr4_AP_FINAL+0
	MOVWF      FARG_I2C_LCD_Out_text+0
	CALL       _I2C_LCD_Out+0
;AP_FINAL.c,49 :: 		}
L_end_plantillaLCD:
	RETURN
; end of _plantillaLCD

_llenarDatosLCD:

;AP_FINAL.c,50 :: 		void llenarDatosLCD(){
;AP_FINAL.c,51 :: 		PorcentajeNivel =  map(NivelActual, NivelMinimo, NivelMaximo, 0, 100);
	MOVF       _NivelActual+0, 0
	MOVWF      FARG_map_x+0
	MOVF       _NivelActual+1, 0
	MOVWF      FARG_map_x+1
	CLRF       FARG_map_x+2
	CLRF       FARG_map_x+3
	MOVF       _NivelMinimo+0, 0
	MOVWF      FARG_map_in_min+0
	MOVF       _NivelMinimo+1, 0
	MOVWF      FARG_map_in_min+1
	CLRF       FARG_map_in_min+2
	CLRF       FARG_map_in_min+3
	MOVF       _NivelMaximo+0, 0
	MOVWF      FARG_map_in_max+0
	MOVF       _NivelMaximo+1, 0
	MOVWF      FARG_map_in_max+1
	CLRF       FARG_map_in_max+2
	CLRF       FARG_map_in_max+3
	CLRF       FARG_map_out_min+0
	CLRF       FARG_map_out_min+1
	CLRF       FARG_map_out_min+2
	CLRF       FARG_map_out_min+3
	MOVLW      100
	MOVWF      FARG_map_out_max+0
	CLRF       FARG_map_out_max+1
	CLRF       FARG_map_out_max+2
	CLRF       FARG_map_out_max+3
	CALL       _map+0
	MOVF       R0+0, 0
	MOVWF      _PorcentajeNivel+0
	MOVF       R0+1, 0
	MOVWF      _PorcentajeNivel+1
;AP_FINAL.c,52 :: 		if(NivelActual < NivelMinimo){
	MOVF       _NivelMinimo+1, 0
	SUBWF      _NivelActual+1, 0
	BTFSS      STATUS+0, 2
	GOTO       L__llenarDatosLCD48
	MOVF       _NivelMinimo+0, 0
	SUBWF      _NivelActual+0, 0
L__llenarDatosLCD48:
	BTFSC      STATUS+0, 0
	GOTO       L_llenarDatosLCD26
;AP_FINAL.c,53 :: 		PorcentajeNivel = 0;
	CLRF       _PorcentajeNivel+0
	CLRF       _PorcentajeNivel+1
;AP_FINAL.c,54 :: 		}
L_llenarDatosLCD26:
;AP_FINAL.c,55 :: 		ByteToStr(PorcentajeNivel, txtporcentaje);
	MOVF       _PorcentajeNivel+0, 0
	MOVWF      FARG_ByteToStr_input+0
	MOVLW      _txtporcentaje+0
	MOVWF      FARG_ByteToStr_output+0
	CALL       _ByteToStr+0
;AP_FINAL.c,56 :: 		I2C_Lcd_Out(2,15,txtporcentaje);
	MOVLW      2
	MOVWF      FARG_I2C_LCD_Out_row+0
	MOVLW      15
	MOVWF      FARG_I2C_LCD_Out_col+0
	MOVLW      _txtporcentaje+0
	MOVWF      FARG_I2C_LCD_Out_text+0
	CALL       _I2C_LCD_Out+0
;AP_FINAL.c,59 :: 		if(EstadoBomba == '1'){
	MOVF       _EstadoBomba+0, 0
	XORLW      49
	BTFSS      STATUS+0, 2
	GOTO       L_llenarDatosLCD27
;AP_FINAL.c,60 :: 		I2C_Lcd_Out(3,15," ON");
	MOVLW      3
	MOVWF      FARG_I2C_LCD_Out_row+0
	MOVLW      15
	MOVWF      FARG_I2C_LCD_Out_col+0
	MOVLW      ?lstr5_AP_FINAL+0
	MOVWF      FARG_I2C_LCD_Out_text+0
	CALL       _I2C_LCD_Out+0
;AP_FINAL.c,61 :: 		}
L_llenarDatosLCD27:
;AP_FINAL.c,62 :: 		if(EstadoBomba == '0'){
	MOVF       _EstadoBomba+0, 0
	XORLW      48
	BTFSS      STATUS+0, 2
	GOTO       L_llenarDatosLCD28
;AP_FINAL.c,63 :: 		I2C_Lcd_Out(3,15,"OFF");
	MOVLW      3
	MOVWF      FARG_I2C_LCD_Out_row+0
	MOVLW      15
	MOVWF      FARG_I2C_LCD_Out_col+0
	MOVLW      ?lstr6_AP_FINAL+0
	MOVWF      FARG_I2C_LCD_Out_text+0
	CALL       _I2C_LCD_Out+0
;AP_FINAL.c,64 :: 		}
L_llenarDatosLCD28:
;AP_FINAL.c,65 :: 		if(EstadoValvula == '1'){
	MOVF       _EstadoValvula+0, 0
	XORLW      49
	BTFSS      STATUS+0, 2
	GOTO       L_llenarDatosLCD29
;AP_FINAL.c,66 :: 		I2C_Lcd_Out(4,17," ON");
	MOVLW      4
	MOVWF      FARG_I2C_LCD_Out_row+0
	MOVLW      17
	MOVWF      FARG_I2C_LCD_Out_col+0
	MOVLW      ?lstr7_AP_FINAL+0
	MOVWF      FARG_I2C_LCD_Out_text+0
	CALL       _I2C_LCD_Out+0
;AP_FINAL.c,67 :: 		}
L_llenarDatosLCD29:
;AP_FINAL.c,68 :: 		if(EstadoValvula == '0'){
	MOVF       _EstadoValvula+0, 0
	XORLW      48
	BTFSS      STATUS+0, 2
	GOTO       L_llenarDatosLCD30
;AP_FINAL.c,69 :: 		I2C_Lcd_Out(4,17,"OFF");
	MOVLW      4
	MOVWF      FARG_I2C_LCD_Out_row+0
	MOVLW      17
	MOVWF      FARG_I2C_LCD_Out_col+0
	MOVLW      ?lstr8_AP_FINAL+0
	MOVWF      FARG_I2C_LCD_Out_text+0
	CALL       _I2C_LCD_Out+0
;AP_FINAL.c,70 :: 		}
L_llenarDatosLCD30:
;AP_FINAL.c,73 :: 		}
L_end_llenarDatosLCD:
	RETURN
; end of _llenarDatosLCD

_enviarDatosUART:

;AP_FINAL.c,75 :: 		void enviarDatosUART(){
;AP_FINAL.c,78 :: 		}
L_end_enviarDatosUART:
	RETURN
; end of _enviarDatosUART

_main:

;AP_FINAL.c,80 :: 		void main() {
;AP_FINAL.c,81 :: 		TRISD.f0 = 0;
	BCF        TRISD+0, 0
;AP_FINAL.c,82 :: 		PORTD.f0 = 0;
	BCF        PORTD+0, 0
;AP_FINAL.c,83 :: 		ADC_Init();
	CALL       _ADC_Init+0
;AP_FINAL.c,84 :: 		PWM1_Init(5000);
	BCF        T2CON+0, 0
	BCF        T2CON+0, 1
	MOVLW      199
	MOVWF      PR2+0
	CALL       _PWM1_Init+0
;AP_FINAL.c,85 :: 		PWM1_Start();
	CALL       _PWM1_Start+0
;AP_FINAL.c,86 :: 		INTCON = 0b10010000;
	MOVLW      144
	MOVWF      INTCON+0
;AP_FINAL.c,87 :: 		I2C1_Init(100000);
	MOVLW      10
	MOVWF      SSPADD+0
	CALL       _I2C1_Init+0
;AP_FINAL.c,88 :: 		I2C_LCD_Init();
	CALL       _I2C_LCD_Init+0
;AP_FINAL.c,89 :: 		I2C_LCD_Cmd(_LCD_CLEAR);
	MOVLW      1
	MOVWF      FARG_I2C_LCD_Cmd_out_char+0
	CALL       _I2C_LCD_Cmd+0
;AP_FINAL.c,90 :: 		I2C_LCD_Cmd(_LCD_CURSOR_OFF);
	MOVLW      12
	MOVWF      FARG_I2C_LCD_Cmd_out_char+0
	CALL       _I2C_LCD_Cmd+0
;AP_FINAL.c,91 :: 		UART1_Init(9600);
	MOVLW      25
	MOVWF      SPBRG+0
	BSF        TXSTA+0, 2
	CALL       _UART1_Init+0
;AP_FINAL.c,92 :: 		plantillaLCD();
	CALL       _plantillaLCD+0
;AP_FINAL.c,94 :: 		while(1){
L_main31:
;AP_FINAL.c,95 :: 		NivelMaximo = ADC_Get_Sample(0);
	CLRF       FARG_ADC_Get_Sample_channel+0
	CALL       _ADC_Get_Sample+0
	MOVF       R0+0, 0
	MOVWF      _NivelMaximo+0
	MOVF       R0+1, 0
	MOVWF      _NivelMaximo+1
;AP_FINAL.c,96 :: 		NivelMinimo = ADC_Get_Sample(1);
	MOVLW      1
	MOVWF      FARG_ADC_Get_Sample_channel+0
	CALL       _ADC_Get_Sample+0
	MOVF       R0+0, 0
	MOVWF      _NivelMinimo+0
	MOVF       R0+1, 0
	MOVWF      _NivelMinimo+1
;AP_FINAL.c,97 :: 		NivelActual = ADC_Get_Sample(2);
	MOVLW      2
	MOVWF      FARG_ADC_Get_Sample_channel+0
	CALL       _ADC_Get_Sample+0
	MOVF       R0+0, 0
	MOVWF      _NivelActual+0
	MOVF       R0+1, 0
	MOVWF      _NivelActual+1
;AP_FINAL.c,98 :: 		controlBomba();
	CALL       _controlBomba+0
;AP_FINAL.c,99 :: 		llenarDatosLCD();
	CALL       _llenarDatosLCD+0
;AP_FINAL.c,100 :: 		controlValvula();
	CALL       _controlValvula+0
;AP_FINAL.c,101 :: 		enviarDatosUART();
	CALL       _enviarDatosUART+0
;AP_FINAL.c,104 :: 		}
	GOTO       L_main31
;AP_FINAL.c,105 :: 		}
L_end_main:
	GOTO       $+0
; end of _main
